target datalayout = "e-m:e-p270:32:32-p271:32:32-p272:64:64-i64:64-i128:128-f80:128-n8:16:32:64-S128"
target triple = "x86_64-pc-linux-gnu"

%struct._object = type { %union.anon, ptr }
%union.anon = type { i64 }
%struct._PyRWMutex = type { i64 }
%struct.PyEvent = type { i8 }
%struct.test_rwlock_data = type { i64, %struct._PyRWMutex, %struct.PyEvent, %struct.PyEvent, %struct.PyEvent, %struct.PyEvent }

@.str.11 = private unnamed_addr constant [49 x i8] c"../cpython/Modules/_testinternalcapi/test_lock.c\00", align 1
@_Py_NoneStruct = external global %struct._object, align 8
@.str.31 = private unnamed_addr constant [23 x i8] c"test_data.rw.bits == 1\00", align 1
@__PRETTY_FUNCTION__.test_lock_rwlock = private unnamed_addr constant [51 x i8] c"PyObject *test_lock_rwlock(PyObject *, PyObject *)\00", align 1
@.str.32 = private unnamed_addr constant [23 x i8] c"test_data.rw.bits == 0\00", align 1
@.str.33 = private unnamed_addr constant [23 x i8] c"test_data.rw.bits == 8\00", align 1
@.str.34 = private unnamed_addr constant [24 x i8] c"test_data.rw.bits == 10\00", align 1
@.str.35 = private unnamed_addr constant [23 x i8] c"test_data.rw.bits == 3\00", align 1

; Function Attrs: inlinehint nounwind uwtable
define internal i64 @_Py_atomic_load_uintptr(ptr noundef %0) #4 {
  %2 = alloca ptr, align 8
  %3 = alloca i64, align 8
  store ptr %0, ptr %2, align 8, !tbaa !84
  %4 = load ptr, ptr %2, align 8, !tbaa !84
  %5 = load atomic i64, ptr %4 seq_cst, align 8
  store i64 %5, ptr %3, align 8
  %6 = load i64, ptr %3, align 8, !tbaa !18
  ret i64 %6
}

; Function Attrs: nounwind uwtable
define internal void @pysleep(i32 noundef %0) #0 {
  %2 = alloca i32, align 4
  store i32 %0, ptr %2, align 4, !tbaa !14
  %3 = load i32, ptr %2, align 4, !tbaa !14
  %4 = mul i32 %3, 1000
  %5 = call i32 @usleep(i32 noundef %4)
  ret void
}

; Function Attrs: nounwind uwtable
define internal void @wait_until(ptr noundef %0, i64 noundef %1) #0 {
  %3 = alloca ptr, align 8
  %4 = alloca i64, align 8
  %5 = alloca i32, align 4
  %6 = alloca i64, align 8
  store ptr %0, ptr %3, align 8, !tbaa !84
  store i64 %1, ptr %4, align 8, !tbaa !18
  call void @llvm.lifetime.start.p0(i64 4, ptr %5) #8
  store i32 0, ptr %5, align 4, !tbaa !14
  call void @llvm.lifetime.start.p0(i64 8, ptr %6) #8
  br label %7

7:                                                ; preds = %19, %2
  call void @pysleep(i32 noundef 10)
  %8 = load ptr, ptr %3, align 8, !tbaa !84
  %9 = call i64 @_Py_atomic_load_uintptr(ptr noundef %8)
  store i64 %9, ptr %6, align 8, !tbaa !18
  %10 = load i32, ptr %5, align 4, !tbaa !14
  %11 = add i32 %10, 1
  store i32 %11, ptr %5, align 4, !tbaa !14
  br label %12

12:                                               ; preds = %7
  %13 = load i64, ptr %6, align 8, !tbaa !18
  %14 = load i64, ptr %4, align 8, !tbaa !18
  %15 = icmp ne i64 %13, %14
  br i1 %15, label %16, label %19

16:                                               ; preds = %12
  %17 = load i32, ptr %5, align 4, !tbaa !14
  %18 = icmp slt i32 %17, 200
  br label %19

19:                                               ; preds = %16, %12
  %20 = phi i1 [ false, %12 ], [ %18, %16 ]
  br i1 %20, label %7, label %21, !llvm.loop !96

21:                                               ; preds = %19
  call void @llvm.lifetime.end.p0(i64 8, ptr %6) #8
  call void @llvm.lifetime.end.p0(i64 4, ptr %5) #8
  ret void
}

; Function Attrs: nounwind uwtable
define internal ptr @test_lock_rwlock(ptr noundef %0, ptr noundef %1) #0 {
  %3 = alloca ptr, align 8
  %4 = alloca ptr, align 8
  %5 = alloca %struct.test_rwlock_data, align 8
  store ptr %0, ptr %3, align 8, !tbaa !3
  store ptr %1, ptr %4, align 8, !tbaa !3
  call void @llvm.lifetime.start.p0(i64 24, ptr %5) #8
  call void @llvm.memcpy.p0.p0.i64(ptr align 8 %5, ptr align 8 @__const.test_lock_rwlock.test_data, i64 24, i1 false)
  %6 = getelementptr inbounds nuw %struct.test_rwlock_data, ptr %5, i32 0, i32 1
  call void @_PyRWMutex_Lock(ptr noundef %6)
  %7 = getelementptr inbounds nuw %struct.test_rwlock_data, ptr %5, i32 0, i32 1
  %8 = getelementptr inbounds nuw %struct._PyRWMutex, ptr %7, i32 0, i32 0
  %9 = load i64, ptr %8, align 8, !tbaa !32
  %10 = icmp eq i64 %9, 1
  br i1 %10, label %11, label %12

11:                                               ; preds = %2
  br label %14

12:                                               ; preds = %2
  call void @__assert_fail(ptr noundef @.str.31, ptr noundef @.str.11, i32 noundef 443, ptr noundef @__PRETTY_FUNCTION__.test_lock_rwlock) #9
  unreachable

13:                                               ; No predecessors!
  br label %14

14:                                               ; preds = %13, %11
  %15 = getelementptr inbounds nuw %struct.test_rwlock_data, ptr %5, i32 0, i32 1
  call void @_PyRWMutex_Unlock(ptr noundef %15)
  %16 = getelementptr inbounds nuw %struct.test_rwlock_data, ptr %5, i32 0, i32 1
  %17 = getelementptr inbounds nuw %struct._PyRWMutex, ptr %16, i32 0, i32 0
  %18 = load i64, ptr %17, align 8, !tbaa !32
  %19 = icmp eq i64 %18, 0
  br i1 %19, label %20, label %21

20:                                               ; preds = %14
  br label %23

21:                                               ; preds = %14
  call void @__assert_fail(ptr noundef @.str.32, ptr noundef @.str.11, i32 noundef 446, ptr noundef @__PRETTY_FUNCTION__.test_lock_rwlock) #9
  unreachable

22:                                               ; No predecessors!
  br label %23

23:                                               ; preds = %22, %20
  %24 = call i64 @PyThread_start_new_thread(ptr noundef @rdlock_thread, ptr noundef %5)
  %25 = call i64 @PyThread_start_new_thread(ptr noundef @rdlock_thread, ptr noundef %5)
  %26 = getelementptr inbounds nuw %struct.test_rwlock_data, ptr %5, i32 0, i32 1
  %27 = getelementptr inbounds nuw %struct._PyRWMutex, ptr %26, i32 0, i32 0
  call void @wait_until(ptr noundef %27, i64 noundef 8)
  %28 = getelementptr inbounds nuw %struct.test_rwlock_data, ptr %5, i32 0, i32 1
  %29 = getelementptr inbounds nuw %struct._PyRWMutex, ptr %28, i32 0, i32 0
  %30 = load i64, ptr %29, align 8, !tbaa !32
  %31 = icmp eq i64 %30, 8
  br i1 %31, label %32, label %33

32:                                               ; preds = %23
  br label %35

33:                                               ; preds = %23
  call void @__assert_fail(ptr noundef @.str.33, ptr noundef @.str.11, i32 noundef 454, ptr noundef @__PRETTY_FUNCTION__.test_lock_rwlock) #9
  unreachable

34:                                               ; No predecessors!
  br label %35

35:                                               ; preds = %34, %32
  %36 = call i64 @PyThread_start_new_thread(ptr noundef @wrlock_thread, ptr noundef %5)
  %37 = getelementptr inbounds nuw %struct.test_rwlock_data, ptr %5, i32 0, i32 1
  %38 = getelementptr inbounds nuw %struct._PyRWMutex, ptr %37, i32 0, i32 0
  call void @wait_until(ptr noundef %38, i64 noundef 10)
  %39 = getelementptr inbounds nuw %struct.test_rwlock_data, ptr %5, i32 0, i32 1
  %40 = getelementptr inbounds nuw %struct._PyRWMutex, ptr %39, i32 0, i32 0
  %41 = load i64, ptr %40, align 8, !tbaa !32
  %42 = icmp eq i64 %41, 10
  br i1 %42, label %43, label %44

43:                                               ; preds = %35
  br label %46

44:                                               ; preds = %35
  call void @__assert_fail(ptr noundef @.str.34, ptr noundef @.str.11, i32 noundef 459, ptr noundef @__PRETTY_FUNCTION__.test_lock_rwlock) #9
  unreachable

45:                                               ; No predecessors!
  br label %46

46:                                               ; preds = %45, %43
  %47 = getelementptr inbounds nuw %struct.test_rwlock_data, ptr %5, i32 0, i32 2
  call void @_PyEvent_Notify(ptr noundef %47)
  %48 = getelementptr inbounds nuw %struct.test_rwlock_data, ptr %5, i32 0, i32 1
  %49 = getelementptr inbounds nuw %struct._PyRWMutex, ptr %48, i32 0, i32 0
  call void @wait_until(ptr noundef %49, i64 noundef 3)
  %50 = getelementptr inbounds nuw %struct.test_rwlock_data, ptr %5, i32 0, i32 1
  %51 = getelementptr inbounds nuw %struct._PyRWMutex, ptr %50, i32 0, i32 0
  %52 = load i64, ptr %51, align 8, !tbaa !32
  %53 = icmp eq i64 %52, 3
  br i1 %53, label %54, label %55

54:                                               ; preds = %46
  br label %57

55:                                               ; preds = %46
  call void @__assert_fail(ptr noundef @.str.35, ptr noundef @.str.11, i32 noundef 464, ptr noundef @__PRETTY_FUNCTION__.test_lock_rwlock) #9
  unreachable

56:                                               ; No predecessors!
  br label %57

57:                                               ; preds = %56, %54
  %58 = getelementptr inbounds nuw %struct.test_rwlock_data, ptr %5, i32 0, i32 3
  call void @_PyEvent_Notify(ptr noundef %58)
  %59 = getelementptr inbounds nuw %struct.test_rwlock_data, ptr %5, i32 0, i32 1
  %60 = getelementptr inbounds nuw %struct._PyRWMutex, ptr %59, i32 0, i32 0
  call void @wait_until(ptr noundef %60, i64 noundef 8)
  %61 = getelementptr inbounds nuw %struct.test_rwlock_data, ptr %5, i32 0, i32 1
  %62 = getelementptr inbounds nuw %struct._PyRWMutex, ptr %61, i32 0, i32 0
  %63 = load i64, ptr %62, align 8, !tbaa !32
  %64 = icmp eq i64 %63, 8
  br i1 %64, label %65, label %66

65:                                               ; preds = %57
  br label %68

66:                                               ; preds = %57
  call void @__assert_fail(ptr noundef @.str.33, ptr noundef @.str.11, i32 noundef 469, ptr noundef @__PRETTY_FUNCTION__.test_lock_rwlock) #9
  unreachable

67:                                               ; No predecessors!
  br label %68

68:                                               ; preds = %67, %65
  %69 = getelementptr inbounds nuw %struct.test_rwlock_data, ptr %5, i32 0, i32 4
  call void @_PyEvent_Notify(ptr noundef %69)
  %70 = getelementptr inbounds nuw %struct.test_rwlock_data, ptr %5, i32 0, i32 1
  %71 = getelementptr inbounds nuw %struct._PyRWMutex, ptr %70, i32 0, i32 0
  call void @wait_until(ptr noundef %71, i64 noundef 0)
  %72 = getelementptr inbounds nuw %struct.test_rwlock_data, ptr %5, i32 0, i32 1
  %73 = getelementptr inbounds nuw %struct._PyRWMutex, ptr %72, i32 0, i32 0
  %74 = load i64, ptr %73, align 8, !tbaa !32
  %75 = icmp eq i64 %74, 0
  br i1 %75, label %76, label %77

76:                                               ; preds = %68
  br label %79

77:                                               ; preds = %68
  call void @__assert_fail(ptr noundef @.str.32, ptr noundef @.str.11, i32 noundef 474, ptr noundef @__PRETTY_FUNCTION__.test_lock_rwlock) #9
  unreachable

78:                                               ; No predecessors!
  br label %79

79:                                               ; preds = %78, %76
  %80 = getelementptr inbounds nuw %struct.test_rwlock_data, ptr %5, i32 0, i32 5
  call void @PyEvent_Wait(ptr noundef %80)
  call void @llvm.lifetime.end.p0(i64 24, ptr %5) #8
  ret ptr @_Py_NoneStruct
}