; Function Attrs: nounwind uwtable
define internal noundef nonnull ptr @test_lock_rwlock(ptr readnone captures(none) %0, ptr readnone captures(none) %1) #0 {
  %3 = alloca %struct.test_rwlock_data, align 8
  call void @llvm.lifetime.start.p0(i64 24, ptr nonnull %3) #6
  call void @llvm.memcpy.p0.p0.i64(ptr noundef nonnull align 8 dereferenceable(24) %3, ptr noundef nonnull align 8 dereferenceable(24) @__const.test_lock_rwlock.test_data, i64 24, i1 false)
  %4 = getelementptr inbounds nuw i8, ptr %3, i64 8
  call void @_PyRWMutex_Lock(ptr noundef nonnull %4) #6
  %5 = load i64, ptr %4, align 8, !tbaa !29
  %6 = icmp eq i64 %5, 1
  br i1 %6, label %8, label %7

7:                                                ; preds = %2
  call void @__assert_fail(ptr noundef nonnull @.str.31, ptr noundef nonnull @.str.11, i32 noundef 443, ptr noundef nonnull @__PRETTY_FUNCTION__.test_lock_rwlock) #7
  unreachable

8:                                                ; preds = %2
  call void @_PyRWMutex_Unlock(ptr noundef nonnull %4) #6
  %9 = load i64, ptr %4, align 8, !tbaa !29
  %10 = icmp eq i64 %9, 0
  br i1 %10, label %12, label %11

11:                                               ; preds = %8
  call void @__assert_fail(ptr noundef nonnull @.str.32, ptr noundef nonnull @.str.11, i32 noundef 446, ptr noundef nonnull @__PRETTY_FUNCTION__.test_lock_rwlock) #7
  unreachable

12:                                               ; preds = %8
  %13 = call i64 @PyThread_start_new_thread(ptr noundef nonnull @rdlock_thread, ptr noundef nonnull %3) #6
  %14 = call i64 @PyThread_start_new_thread(ptr noundef nonnull @rdlock_thread, ptr noundef nonnull %3) #6
  br label %15

15:                                               ; preds = %15, %12
  %.0.i = phi i32 [ 0, %12 ], [ %18, %15 ]
  %16 = call i32 @usleep(i32 noundef 10000) #6
  %17 = load atomic i64, ptr %4 seq_cst, align 8
  %18 = add nuw nsw i32 %.0.i, 1
  %19 = icmp ne i64 %17, 8
  %20 = icmp samesign ult i32 %.0.i, 199
  %21 = select i1 %19, i1 %20, i1 false
  br i1 %21, label %15, label %wait_until.exit, !llvm.loop !32

wait_until.exit:                                  ; preds = %15
  %22 = icmp eq i64 %17, 8
  br i1 %22, label %24, label %23

23:                                               ; preds = %wait_until.exit
  call void @__assert_fail(ptr noundef nonnull @.str.33, ptr noundef nonnull @.str.11, i32 noundef 454, ptr noundef nonnull @__PRETTY_FUNCTION__.test_lock_rwlock) #7
  unreachable

24:                                               ; preds = %wait_until.exit
  %25 = call i64 @PyThread_start_new_thread(ptr noundef nonnull @wrlock_thread, ptr noundef nonnull %3) #6
  br label %26

26:                                               ; preds = %26, %24
  %.0.i1 = phi i32 [ 0, %24 ], [ %29, %26 ]
  %27 = call i32 @usleep(i32 noundef 10000) #6
  %28 = load atomic i64, ptr %4 seq_cst, align 8
  %29 = add nuw nsw i32 %.0.i1, 1
  %30 = icmp ne i64 %28, 10
  %31 = icmp samesign ult i32 %.0.i1, 199
  %32 = select i1 %30, i1 %31, i1 false
  br i1 %32, label %26, label %wait_until.exit2, !llvm.loop !32

wait_until.exit2:                                 ; preds = %26
  %33 = icmp eq i64 %28, 10
  br i1 %33, label %35, label %34

34:                                               ; preds = %wait_until.exit2
  call void @__assert_fail(ptr noundef nonnull @.str.34, ptr noundef nonnull @.str.11, i32 noundef 459, ptr noundef nonnull @__PRETTY_FUNCTION__.test_lock_rwlock) #7
  unreachable

35:                                               ; preds = %wait_until.exit2
  %36 = getelementptr inbounds nuw i8, ptr %3, i64 16
  call void @_PyEvent_Notify(ptr noundef nonnull %36) #6
  br label %37

37:                                               ; preds = %37, %35
  %.0.i3 = phi i32 [ 0, %35 ], [ %40, %37 ]
  %38 = call i32 @usleep(i32 noundef 10000) #6
  %39 = load atomic i64, ptr %4 seq_cst, align 8
  %40 = add nuw nsw i32 %.0.i3, 1
  %41 = icmp ne i64 %39, 3
  %42 = icmp samesign ult i32 %.0.i3, 199
  %43 = select i1 %41, i1 %42, i1 false
  br i1 %43, label %37, label %wait_until.exit4, !llvm.loop !32

wait_until.exit4:                                 ; preds = %37
  %44 = icmp eq i64 %39, 3
  br i1 %44, label %46, label %45

45:                                               ; preds = %wait_until.exit4
  call void @__assert_fail(ptr noundef nonnull @.str.35, ptr noundef nonnull @.str.11, i32 noundef 464, ptr noundef nonnull @__PRETTY_FUNCTION__.test_lock_rwlock) #7
  unreachable

46:                                               ; preds = %wait_until.exit4
  %47 = getelementptr inbounds nuw i8, ptr %3, i64 17
  call void @_PyEvent_Notify(ptr noundef nonnull %47) #6
  br label %48

48:                                               ; preds = %48, %46
  %.0.i5 = phi i32 [ 0, %46 ], [ %51, %48 ]
  %49 = call i32 @usleep(i32 noundef 10000) #6
  %50 = load atomic i64, ptr %4 seq_cst, align 8
  %51 = add nuw nsw i32 %.0.i5, 1
  %52 = icmp ne i64 %50, 8
  %53 = icmp samesign ult i32 %.0.i5, 199
  %54 = select i1 %52, i1 %53, i1 false
  br i1 %54, label %48, label %wait_until.exit6, !llvm.loop !32

wait_until.exit6:                                 ; preds = %48
  %55 = icmp eq i64 %50, 8
  br i1 %55, label %57, label %56

56:                                               ; preds = %wait_until.exit6
  call void @__assert_fail(ptr noundef nonnull @.str.33, ptr noundef nonnull @.str.11, i32 noundef 469, ptr noundef nonnull @__PRETTY_FUNCTION__.test_lock_rwlock) #7
  unreachable

57:                                               ; preds = %wait_until.exit6
  %58 = getelementptr inbounds nuw i8, ptr %3, i64 18
  call void @_PyEvent_Notify(ptr noundef nonnull %58) #6
  br label %59

59:                                               ; preds = %59, %57
  %.0.i7 = phi i32 [ 0, %57 ], [ %62, %59 ]
  %60 = call i32 @usleep(i32 noundef 10000) #6
  %61 = load atomic i64, ptr %4 seq_cst, align 8
  %62 = add nuw nsw i32 %.0.i7, 1
  %63 = icmp ne i64 %61, 0
  %64 = icmp samesign ult i32 %.0.i7, 199
  %65 = select i1 %63, i1 %64, i1 false
  br i1 %65, label %59, label %wait_until.exit8, !llvm.loop !32

wait_until.exit8:                                 ; preds = %59
  %66 = icmp eq i64 %61, 0
  br i1 %66, label %68, label %67

67:                                               ; preds = %wait_until.exit8
  call void @__assert_fail(ptr noundef nonnull @.str.32, ptr noundef nonnull @.str.11, i32 noundef 474, ptr noundef nonnull @__PRETTY_FUNCTION__.test_lock_rwlock) #7
  unreachable

68:                                               ; preds = %wait_until.exit8
  %69 = getelementptr inbounds nuw i8, ptr %3, i64 19
  call void @PyEvent_Wait(ptr noundef nonnull %69) #6
  call void @llvm.lifetime.end.p0(i64 24, ptr nonnull %3) #6
  ret ptr @_Py_NoneStruct
}